target datalayout = "e-m:e-p270:32:32-p271:32:32-p272:64:64-i64:64-i128:128-f80:128-n8:16:32:64-S128"
target triple = "x86_64-pc-linux-gnu"

%struct.ExplainState = type { ptr, i8, i8, i8, i8, i8, i8, i8, i8, i8, i8, i32, i32, i32, ptr, ptr, ptr, ptr, ptr, ptr, i8, i32, ptr }

; Function Attrs: nounwind uwtable
define dso_local void @ExplainCloseGroup(ptr noundef %0, ptr noundef %1, i1 noundef zeroext %2, ptr noundef %3) #0 {
  %5 = alloca ptr, align 8
  %6 = alloca ptr, align 8
  %7 = alloca i8, align 1
  %8 = alloca ptr, align 8
  store ptr %0, ptr %5, align 8
  store ptr %1, ptr %6, align 8
  %9 = zext i1 %2 to i8
  store i8 %9, ptr %7, align 1
  store ptr %3, ptr %8, align 8
  %10 = load ptr, ptr %8, align 8
  %11 = getelementptr inbounds nuw %struct.ExplainState, ptr %10, i32 0, i32 12
  %12 = load i32, ptr %11, align 8
  switch i32 %12, label %59 [
    i32 0, label %59
    i32 1, label %13
    i32 2, label %20
    i32 3, label %48
  ]

13:                                               ; preds = %4
  %14 = load ptr, ptr %8, align 8
  %15 = getelementptr inbounds nuw %struct.ExplainState, ptr %14, i32 0, i32 13
  %16 = load i32, ptr %15, align 4
  %17 = add i32 %16, -1
  store i32 %17, ptr %15, align 4
  %18 = load ptr, ptr %5, align 8
  %19 = load ptr, ptr %8, align 8
  call void @ExplainXMLTag(ptr noundef %18, i32 noundef 1, ptr noundef %19)
  br label %59

20:                                               ; preds = %4
  %21 = load ptr, ptr %8, align 8
  %22 = getelementptr inbounds nuw %struct.ExplainState, ptr %21, i32 0, i32 13
  %23 = load i32, ptr %22, align 4
  %24 = add i32 %23, -1
  store i32 %24, ptr %22, align 4
  %25 = load ptr, ptr %8, align 8
  %26 = getelementptr inbounds nuw %struct.ExplainState, ptr %25, i32 0, i32 0
  %27 = load ptr, ptr %26, align 8
  call void @appendStringInfoChar(ptr noundef %27, i8 noundef signext 10)
  %28 = load ptr, ptr %8, align 8
  %29 = getelementptr inbounds nuw %struct.ExplainState, ptr %28, i32 0, i32 0
  %30 = load ptr, ptr %29, align 8
  %31 = load ptr, ptr %8, align 8
  %32 = getelementptr inbounds nuw %struct.ExplainState, ptr %31, i32 0, i32 13
  %33 = load i32, ptr %32, align 4
  %34 = mul i32 2, %33
  call void @appendStringInfoSpaces(ptr noundef %30, i32 noundef %34)
  %35 = load ptr, ptr %8, align 8
  %36 = getelementptr inbounds nuw %struct.ExplainState, ptr %35, i32 0, i32 0
  %37 = load ptr, ptr %36, align 8
  %38 = load i8, ptr %7, align 1, !range !6, !noundef !7
  %39 = trunc i8 %38 to i1
  %40 = select i1 %39, i32 125, i32 93
  %41 = trunc i32 %40 to i8
  call void @appendStringInfoChar(ptr noundef %37, i8 noundef signext %41)
  %42 = load ptr, ptr %8, align 8
  %43 = getelementptr inbounds nuw %struct.ExplainState, ptr %42, i32 0, i32 14
  %44 = load ptr, ptr %43, align 8
  %45 = call ptr @list_delete_first(ptr noundef %44)
  %46 = load ptr, ptr %8, align 8
  %47 = getelementptr inbounds nuw %struct.ExplainState, ptr %46, i32 0, i32 14
  store ptr %45, ptr %47, align 8
  br label %59

48:                                               ; preds = %4
  %49 = load ptr, ptr %8, align 8
  %50 = getelementptr inbounds nuw %struct.ExplainState, ptr %49, i32 0, i32 13
  %51 = load i32, ptr %50, align 4
  %52 = add i32 %51, -1
  store i32 %52, ptr %50, align 4
  %53 = load ptr, ptr %8, align 8
  %54 = getelementptr inbounds nuw %struct.ExplainState, ptr %53, i32 0, i32 14
  %55 = load ptr, ptr %54, align 8
  %56 = call ptr @list_delete_first(ptr noundef %55)
  %57 = load ptr, ptr %8, align 8
  %58 = getelementptr inbounds nuw %struct.ExplainState, ptr %57, i32 0, i32 14
  store ptr %56, ptr %58, align 8
  br label %59

59:                                               ; preds = %4, %48, %20, %13, %4
  ret void
}