; Function Attrs: nounwind uwtable
define dso_local void @ExplainCloseGroup(ptr noundef readonly captures(none) %0, ptr readnone captures(none) %1, i1 noundef zeroext %2, ptr noundef captures(none) %3) local_unnamed_addr #0 {
  %5 = getelementptr inbounds nuw i8, ptr %3, i64 24
  %6 = load i32, ptr %5, align 8
  switch i32 %6, label %31 [
    i32 3, label %24
    i32 1, label %7
    i32 2, label %11
  ]

7:                                                ; preds = %4
  %8 = getelementptr inbounds nuw i8, ptr %3, i64 28
  %9 = load i32, ptr %8, align 4
  %10 = add i32 %9, -1
  store i32 %10, ptr %8, align 4
  tail call fastcc void @ExplainXMLTag(ptr noundef %0, i32 noundef 1, ptr noundef nonnull %3)
  br label %31

11:                                               ; preds = %4
  %12 = getelementptr inbounds nuw i8, ptr %3, i64 28
  %13 = load i32, ptr %12, align 4
  %14 = add i32 %13, -1
  store i32 %14, ptr %12, align 4
  %15 = load ptr, ptr %3, align 8
  tail call void @appendStringInfoChar(ptr noundef %15, i8 noundef signext 10) #13
  %16 = load ptr, ptr %3, align 8
  %17 = load i32, ptr %12, align 4
  %18 = shl i32 %17, 1
  tail call void @appendStringInfoSpaces(ptr noundef %16, i32 noundef %18) #13
  %19 = load ptr, ptr %3, align 8
  %20 = select i1 %2, i8 125, i8 93
  tail call void @appendStringInfoChar(ptr noundef %19, i8 noundef signext %20) #13
  %21 = getelementptr inbounds nuw i8, ptr %3, i64 32
  %22 = load ptr, ptr %21, align 8
  %23 = tail call ptr @list_delete_first(ptr noundef %22) #13
  store ptr %23, ptr %21, align 8
  br label %31

24:                                               ; preds = %4
  %25 = getelementptr inbounds nuw i8, ptr %3, i64 28
  %26 = load i32, ptr %25, align 4
  %27 = add i32 %26, -1
  store i32 %27, ptr %25, align 4
  %28 = getelementptr inbounds nuw i8, ptr %3, i64 32
  %29 = load ptr, ptr %28, align 8
  %30 = tail call ptr @list_delete_first(ptr noundef %29) #13
  store ptr %30, ptr %28, align 8
  br label %31

31:                                               ; preds = %24, %11, %7, %4
  ret void
}